target datalayout = "e-m:e-p270:32:32-p271:32:32-p272:64:64-i64:64-i128:128-f80:128-n8:16:32:64-S128"
target triple = "x86_64-pc-linux-gnu"

%"struct.Luau::Location" = type { %"struct.Luau::Position", %"struct.Luau::Position" }
%"struct.Luau::Position" = type { i32, i32 }
%"class.Luau::AstNode" = type <{ ptr, i32, %"struct.Luau::Location", [4 x i8] }>
%"class.Luau::AstNode.base" = type <{ ptr, i32, %"struct.Luau::Location" }>
%"struct.Luau::AstArray.22" = type { ptr, i64 }
%"class.Luau::AstExpr.base" = type { %"class.Luau::AstNode.base" }
%"struct.Luau::AstName" = type { ptr }
%"class.Luau::AstExprCall" = type <{ %"class.Luau::AstExpr.base", [4 x i8], ptr, %"struct.Luau::AstArray.22", i8, [3 x i8], %"struct.Luau::Location", [4 x i8] }>
%"class.std::optional.314" = type { %"struct.std::_Optional_base.315" }
%"struct.std::_Optional_base.315" = type { %"struct.std::_Optional_payload.317" }
%"struct.std::_Optional_payload.317" = type { %"struct.std::_Optional_payload_base.base.319", [7 x i8] }
%"struct.std::_Optional_payload_base.base.319" = type <{ %"union.std::_Optional_payload_base<Luau::AstExpr *>::_Storage", i8 }>
%"union.std::_Optional_payload_base<Luau::AstExpr *>::_Storage" = type { ptr }
%"class.Luau::AstExprGlobal" = type { %"class.Luau::AstExpr.base", %"struct.Luau::AstName" }
%"struct.std::_Optional_payload_base.318" = type <{ %"union.std::_Optional_payload_base<Luau::AstExpr *>::_Storage", i8, [7 x i8] }>

@_ZN4Luau7AstRttiINS_13AstExprGlobalEE5valueE = linkonce_odr dso_local global i32 0, comdat, align 4
@.str.86 = private unnamed_addr constant [8 x i8] c"require\00", align 1

; Function Attrs: mustprogress nounwind uwtable
define linkonce_odr dso_local void @_ZNSt22_Optional_payload_baseIPN4Luau7AstExprEE8_StorageIS2_Lb1EEC2IJRS2_EEESt10in_place_tDpOT_(ptr noundef nonnull align 8 dereferenceable(8) %0, ptr noundef nonnull align 8 dereferenceable(8) %1) unnamed_addr #2 comdat align 2 {
  %3 = alloca ptr, align 8
  %4 = alloca ptr, align 8
  store ptr %0, ptr %3, align 8, !tbaa !821
  store ptr %1, ptr %4, align 8, !tbaa !158
  %5 = load ptr, ptr %3, align 8
  %6 = load ptr, ptr %4, align 8, !tbaa !158
  %7 = load ptr, ptr %6, align 8, !tbaa !160
  store ptr %7, ptr %5, align 8, !tbaa !313
  ret void
}

; Function Attrs: mustprogress nounwind uwtable
define linkonce_odr dso_local void @_ZNSt22_Optional_payload_baseIPN4Luau7AstExprEE8_StorageIS2_Lb1EEC2Ev(ptr noundef nonnull align 8 dereferenceable(8) %0) unnamed_addr #2 comdat align 2 {
  %2 = alloca ptr, align 8
  store ptr %0, ptr %2, align 8, !tbaa !821
  ret void
}

; Function Attrs: mustprogress uwtable
define linkonce_odr dso_local void @_ZNSt22_Optional_payload_baseIPN4Luau7AstExprEEC2IJRS2_EEESt10in_place_tDpOT_(ptr noundef nonnull align 8 dereferenceable(9) %0, ptr noundef nonnull align 8 dereferenceable(8) %1) unnamed_addr #8 comdat align 2 {
  %3 = alloca ptr, align 8
  %4 = alloca ptr, align 8
  store ptr %0, ptr %3, align 8, !tbaa !817
  store ptr %1, ptr %4, align 8, !tbaa !158
  %5 = load ptr, ptr %3, align 8
  %6 = getelementptr inbounds nuw %"struct.std::_Optional_payload_base.318", ptr %5, i32 0, i32 0
  %7 = load ptr, ptr %4, align 8, !tbaa !158
  call void @_ZNSt22_Optional_payload_baseIPN4Luau7AstExprEE8_StorageIS2_Lb1EEC2IJRS2_EEESt10in_place_tDpOT_(ptr noundef nonnull align 8 dereferenceable(8) %6, ptr noundef nonnull align 8 dereferenceable(8) %7)
  %8 = getelementptr inbounds nuw %"struct.std::_Optional_payload_base.318", ptr %5, i32 0, i32 1
  store i8 1, ptr %8, align 8, !tbaa !819
  ret void
}

; Function Attrs: mustprogress nounwind uwtable
define linkonce_odr dso_local void @_ZNSt22_Optional_payload_baseIPN4Luau7AstExprEEC2Ev(ptr noundef nonnull align 8 dereferenceable(9) %0) unnamed_addr #2 comdat align 2 {
  %2 = alloca ptr, align 8
  store ptr %0, ptr %2, align 8, !tbaa !817
  %3 = load ptr, ptr %2, align 8
  %4 = getelementptr inbounds nuw %"struct.std::_Optional_payload_base.318", ptr %3, i32 0, i32 0
  call void @_ZNSt22_Optional_payload_baseIPN4Luau7AstExprEE8_StorageIS2_Lb1EEC2Ev(ptr noundef nonnull align 8 dereferenceable(8) %4) #4
  %5 = getelementptr inbounds nuw %"struct.std::_Optional_payload_base.318", ptr %3, i32 0, i32 1
  store i8 0, ptr %5, align 8, !tbaa !819
  ret void
}

; Function Attrs: inlinehint mustprogress uwtable
define linkonce_odr dso_local void @_ZNSt17_Optional_payloadIPN4Luau7AstExprELb1ELb1ELb1EECI2St22_Optional_payload_baseIS2_EIJRS2_EEESt10in_place_tDpOT_(ptr noundef nonnull align 8 dereferenceable(9) %0, ptr noundef nonnull align 8 dereferenceable(8) %1) unnamed_addr #5 comdat align 2 {
  %3 = alloca ptr, align 8
  %4 = alloca ptr, align 8
  store ptr %0, ptr %3, align 8, !tbaa !815
  store ptr %1, ptr %4, align 8, !tbaa !158
  %5 = load ptr, ptr %3, align 8
  %6 = load ptr, ptr %4, align 8
  call void @_ZNSt22_Optional_payload_baseIPN4Luau7AstExprEEC2IJRS2_EEESt10in_place_tDpOT_(ptr noundef nonnull align 8 dereferenceable(9) %5, ptr noundef nonnull align 8 dereferenceable(8) %6)
  ret void
}

; Function Attrs: mustprogress nounwind uwtable
define linkonce_odr dso_local void @_ZNSt17_Optional_payloadIPN4Luau7AstExprELb1ELb1ELb1EEC2Ev(ptr noundef nonnull align 8 dereferenceable(9) %0) unnamed_addr #2 comdat align 2 {
  %2 = alloca ptr, align 8
  store ptr %0, ptr %2, align 8, !tbaa !815
  %3 = load ptr, ptr %2, align 8
  call void @_ZNSt22_Optional_payload_baseIPN4Luau7AstExprEEC2Ev(ptr noundef nonnull align 8 dereferenceable(9) %3) #4
  ret void
}

; Function Attrs: noinline noreturn nounwind uwtable
define linkonce_odr hidden void @__clang_call_terminate(ptr noundef %0) #12 comdat {
  %2 = call ptr @__cxa_begin_catch(ptr %0) #4
  call void @_ZSt9terminatev() #21
  unreachable
}

; Function Attrs: mustprogress uwtable
define linkonce_odr dso_local void @_ZNSt14_Optional_baseIPN4Luau7AstExprELb1ELb1EEC2IJRS2_ETnNSt9enable_ifIX18is_constructible_vIS2_DpT_EEbE4typeELb0EEESt10in_place_tDpOS7_(ptr noundef nonnull align 8 dereferenceable(16) %0, ptr noundef nonnull align 8 dereferenceable(8) %1) unnamed_addr #8 comdat align 2 {
  %3 = alloca ptr, align 8
  %4 = alloca ptr, align 8
  store ptr %0, ptr %3, align 8, !tbaa !813
  store ptr %1, ptr %4, align 8, !tbaa !158
  %5 = load ptr, ptr %3, align 8
  %6 = getelementptr inbounds nuw %"struct.std::_Optional_base.315", ptr %5, i32 0, i32 0
  %7 = load ptr, ptr %4, align 8, !tbaa !158
  call void @_ZNSt17_Optional_payloadIPN4Luau7AstExprELb1ELb1ELb1EECI2St22_Optional_payload_baseIS2_EIJRS2_EEESt10in_place_tDpOT_(ptr noundef nonnull align 8 dereferenceable(9) %6, ptr noundef nonnull align 8 dereferenceable(8) %7)
  ret void
}

; Function Attrs: mustprogress nounwind uwtable
define linkonce_odr dso_local noundef i32 @_ZN4Luau13AstExprGlobal10ClassIndexEv() #2 comdat align 2 {
  %1 = load i32, ptr @_ZN4Luau7AstRttiINS_13AstExprGlobalEE5valueE, align 4, !tbaa !4
  ret i32 %1
}

; Function Attrs: mustprogress nounwind uwtable
define linkonce_odr dso_local void @_ZNSt14_Optional_baseIPN4Luau7AstExprELb1ELb1EEC2Ev(ptr noundef nonnull align 8 dereferenceable(16) %0) unnamed_addr #2 comdat align 2 {
  %2 = alloca ptr, align 8
  store ptr %0, ptr %2, align 8, !tbaa !813
  %3 = load ptr, ptr %2, align 8
  %4 = getelementptr inbounds nuw %"struct.std::_Optional_base.315", ptr %3, i32 0, i32 0
  call void @_ZNSt17_Optional_payloadIPN4Luau7AstExprELb1ELb1ELb1EEC2Ev(ptr noundef nonnull align 8 dereferenceable(9) %4) #4
  ret void
}

; Function Attrs: mustprogress nounwind uwtable
define linkonce_odr dso_local void @_ZNSt8optionalIPN4Luau7AstExprEEC2IRS2_TnNSt9enable_ifIX7__and_vISt6__not_ISt7is_sameIS3_NSt9remove_cvINSt16remove_referenceIT_E4typeEE4typeEEES7_IS8_ISt10in_place_tSF_EESt16is_constructibleIS2_JSB_EESt14is_convertibleISB_S2_EEEbE4typeELb1EEEOSB_(ptr noundef nonnull align 8 dereferenceable(16) %0, ptr noundef nonnull align 8 dereferenceable(8) %1) unnamed_addr #2 comdat align 2 personality ptr @__gxx_personality_v0 {
  %3 = alloca ptr, align 8
  %4 = alloca ptr, align 8
  store ptr %0, ptr %3, align 8, !tbaa !481
  store ptr %1, ptr %4, align 8, !tbaa !158
  %5 = load ptr, ptr %3, align 8
  %6 = load ptr, ptr %4, align 8, !tbaa !158
  invoke void @_ZNSt14_Optional_baseIPN4Luau7AstExprELb1ELb1EEC2IJRS2_ETnNSt9enable_ifIX18is_constructible_vIS2_DpT_EEbE4typeELb0EEESt10in_place_tDpOS7_(ptr noundef nonnull align 8 dereferenceable(16) %5, ptr noundef nonnull align 8 dereferenceable(8) %6)
          to label %7 unwind label %8

7:                                                ; preds = %2
  ret void

8:                                                ; preds = %2
  %9 = landingpad { ptr, i32 }
          catch ptr null
  %10 = extractvalue { ptr, i32 } %9, 0
  call void @__clang_call_terminate(ptr %10) #21
  unreachable
}

; Function Attrs: mustprogress nounwind uwtable
define linkonce_odr dso_local noundef zeroext i1 @_ZNK4Luau7AstNameneEPKc(ptr noundef nonnull align 8 dereferenceable(8) %0, ptr noundef %1) #2 comdat align 2 {
  %3 = alloca ptr, align 8
  %4 = alloca ptr, align 8
  store ptr %0, ptr %3, align 8, !tbaa !483
  store ptr %1, ptr %4, align 8, !tbaa !24
  %5 = load ptr, ptr %3, align 8
  %6 = getelementptr inbounds nuw %"struct.Luau::AstName", ptr %5, i32 0, i32 0
  %7 = load ptr, ptr %6, align 8, !tbaa !485
  %8 = icmp ne ptr %7, null
  br i1 %8, label %9, label %15

9:                                                ; preds = %2
  %10 = getelementptr inbounds nuw %"struct.Luau::AstName", ptr %5, i32 0, i32 0
  %11 = load ptr, ptr %10, align 8, !tbaa !485
  %12 = load ptr, ptr %4, align 8, !tbaa !24
  %13 = call i32 @strcmp(ptr noundef %11, ptr noundef %12) #22
  %14 = icmp ne i32 %13, 0
  br label %15

15:                                               ; preds = %9, %2
  %16 = phi i1 [ true, %2 ], [ %14, %9 ]
  ret i1 %16
}

; Function Attrs: mustprogress uwtable
define linkonce_odr dso_local noundef ptr @_ZN4Luau7AstNode2asINS_13AstExprGlobalEEEPT_v(ptr noundef nonnull align 8 dereferenceable(28) %0) #8 comdat align 2 {
  %2 = alloca ptr, align 8
  store ptr %0, ptr %2, align 8, !tbaa !99
  %3 = load ptr, ptr %2, align 8
  %4 = getelementptr inbounds nuw %"class.Luau::AstNode", ptr %3, i32 0, i32 1
  %5 = load i32, ptr %4, align 8, !tbaa !101
  %6 = call noundef i32 @_ZN4Luau13AstExprGlobal10ClassIndexEv()
  %7 = icmp eq i32 %5, %6
  br i1 %7, label %8, label %9

8:                                                ; preds = %1
  br label %10

9:                                                ; preds = %1
  br label %10

10:                                               ; preds = %9, %8
  %11 = phi ptr [ %3, %8 ], [ null, %9 ]
  ret ptr %11
}

; Function Attrs: mustprogress nounwind uwtable
define linkonce_odr dso_local void @_ZNSt8optionalIPN4Luau7AstExprEEC2ESt9nullopt_t(ptr noundef nonnull align 8 dereferenceable(16) %0) unnamed_addr #2 comdat align 2 {
  %2 = alloca ptr, align 8
  store ptr %0, ptr %2, align 8, !tbaa !481
  %3 = load ptr, ptr %2, align 8
  call void @_ZNSt14_Optional_baseIPN4Luau7AstExprELb1ELb1EEC2Ev(ptr noundef nonnull align 8 dereferenceable(16) %3) #4
  ret void
}

; Function Attrs: mustprogress uwtable
define dso_local { ptr, i8 } @_ZN4Luau14AnyTypeSummary12matchRequireERKNS_11AstExprCallE(ptr noundef nonnull align 8 dereferenceable(288) %0, ptr noundef nonnull align 8 dereferenceable(76) %1) #8 align 2 {
  %3 = alloca %"class.std::optional.314", align 8
  %4 = alloca ptr, align 8
  %5 = alloca ptr, align 8
  %6 = alloca ptr, align 8
  %7 = alloca i32, align 4
  %8 = alloca ptr, align 8
  store ptr %0, ptr %4, align 8, !tbaa !42
  store ptr %1, ptr %5, align 8, !tbaa !304
  call void @llvm.lifetime.start.p0(i64 8, ptr %6) #4
  store ptr @.str.86, ptr %6, align 8, !tbaa !24
  %9 = load ptr, ptr %5, align 8, !tbaa !304
  %10 = getelementptr inbounds nuw %"class.Luau::AstExprCall", ptr %9, i32 0, i32 3
  %11 = getelementptr inbounds nuw %"struct.Luau::AstArray.22", ptr %10, i32 0, i32 1
  %12 = load i64, ptr %11, align 8, !tbaa !477
  %13 = icmp ne i64 %12, 1
  br i1 %13, label %14, label %15

14:                                               ; preds = %2
  call void @_ZNSt8optionalIPN4Luau7AstExprEEC2ESt9nullopt_t(ptr noundef nonnull align 8 dereferenceable(16) %3) #4
  store i32 1, ptr %7, align 4
  br label %42

15:                                               ; preds = %2
  call void @llvm.lifetime.start.p0(i64 8, ptr %8) #4
  %16 = load ptr, ptr %5, align 8, !tbaa !304
  %17 = getelementptr inbounds nuw %"class.Luau::AstExprCall", ptr %16, i32 0, i32 2
  %18 = load ptr, ptr %17, align 8, !tbaa !306
  %19 = call noundef ptr @_ZN4Luau7AstNode2asINS_13AstExprGlobalEEEPT_v(ptr noundef nonnull align 8 dereferenceable(28) %18)
  store ptr %19, ptr %8, align 8, !tbaa !478
  %20 = load ptr, ptr %8, align 8, !tbaa !478
  %21 = icmp ne ptr %20, null
  br i1 %21, label %22, label %27

22:                                               ; preds = %15
  %23 = load ptr, ptr %8, align 8, !tbaa !478
  %24 = getelementptr inbounds nuw %"class.Luau::AstExprGlobal", ptr %23, i32 0, i32 1
  %25 = load ptr, ptr %6, align 8, !tbaa !24
  %26 = call noundef zeroext i1 @_ZNK4Luau7AstNameneEPKc(ptr noundef nonnull align 8 dereferenceable(8) %24, ptr noundef %25)
  br i1 %26, label %27, label %28

27:                                               ; preds = %22, %15
  call void @_ZNSt8optionalIPN4Luau7AstExprEEC2ESt9nullopt_t(ptr noundef nonnull align 8 dereferenceable(16) %3) #4
  store i32 1, ptr %7, align 4
  br label %41

28:                                               ; preds = %22
  %29 = load ptr, ptr %5, align 8, !tbaa !304
  %30 = getelementptr inbounds nuw %"class.Luau::AstExprCall", ptr %29, i32 0, i32 3
  %31 = getelementptr inbounds nuw %"struct.Luau::AstArray.22", ptr %30, i32 0, i32 1
  %32 = load i64, ptr %31, align 8, !tbaa !477
  %33 = icmp ne i64 %32, 1
  br i1 %33, label %34, label %35

34:                                               ; preds = %28
  call void @_ZNSt8optionalIPN4Luau7AstExprEEC2ESt9nullopt_t(ptr noundef nonnull align 8 dereferenceable(16) %3) #4
  store i32 1, ptr %7, align 4
  br label %41

35:                                               ; preds = %28
  %36 = load ptr, ptr %5, align 8, !tbaa !304
  %37 = getelementptr inbounds nuw %"class.Luau::AstExprCall", ptr %36, i32 0, i32 3
  %38 = getelementptr inbounds nuw %"struct.Luau::AstArray.22", ptr %37, i32 0, i32 0
  %39 = load ptr, ptr %38, align 8, !tbaa !480
  %40 = getelementptr inbounds ptr, ptr %39, i64 0
  call void @_ZNSt8optionalIPN4Luau7AstExprEEC2IRS2_TnNSt9enable_ifIX7__and_vISt6__not_ISt7is_sameIS3_NSt9remove_cvINSt16remove_referenceIT_E4typeEE4typeEEES7_IS8_ISt10in_place_tSF_EESt16is_constructibleIS2_JSB_EESt14is_convertibleISB_S2_EEEbE4typeELb1EEEOSB_(ptr noundef nonnull align 8 dereferenceable(16) %3, ptr noundef nonnull align 8 dereferenceable(8) %40) #4
  store i32 1, ptr %7, align 4
  br label %41

41:                                               ; preds = %35, %34, %27
  call void @llvm.lifetime.end.p0(i64 8, ptr %8) #4
  br label %42

42:                                               ; preds = %41, %14
  call void @llvm.lifetime.end.p0(i64 8, ptr %6) #4
  %43 = getelementptr inbounds nuw %"class.std::optional.314", ptr %3, i32 0, i32 0
  %44 = getelementptr inbounds nuw %"struct.std::_Optional_base.315", ptr %43, i32 0, i32 0
  %45 = load { ptr, i8 }, ptr %44, align 8
  ret { ptr, i8 } %45
}