; Function Attrs: mustprogress nofree nounwind willreturn memory(read, inaccessiblemem: none) uwtable
define dso_local { ptr, i8 } @_ZN4Luau14AnyTypeSummary12matchRequireERKNS_11AstExprCallE(ptr noundef nonnull readnone align 8 captures(none) dereferenceable(288) %0, ptr noundef nonnull readonly align 8 captures(none) dereferenceable(76) %1) local_unnamed_addr #11 align 2 personality ptr @__gxx_personality_v0 {
  %3 = getelementptr inbounds nuw i8, ptr %1, i64 40
  %4 = getelementptr inbounds nuw i8, ptr %1, i64 48
  %5 = load i64, ptr %4, align 8, !tbaa !371
  %.not = icmp eq i64 %5, 1
  br i1 %.not, label %6, label %_ZNK4Luau7AstNameneEPKc.exit.thread

6:                                                ; preds = %2
  %7 = getelementptr inbounds nuw i8, ptr %1, i64 32
  %8 = load ptr, ptr %7, align 8, !tbaa !115
  %9 = getelementptr inbounds nuw i8, ptr %8, i64 8
  %10 = load i32, ptr %9, align 8, !tbaa !24
  %11 = load i32, ptr @_ZN4Luau7AstRttiINS_13AstExprGlobalEE5valueE, align 4, !tbaa !4
  %12 = icmp ne i32 %10, %11
  %.not79 = icmp eq ptr %8, null
  %.not7 = or i1 %.not79, %12
  br i1 %.not7, label %_ZNK4Luau7AstNameneEPKc.exit.thread, label %13

13:                                               ; preds = %6
  %14 = getelementptr inbounds nuw i8, ptr %8, i64 32
  %15 = load ptr, ptr %14, align 8, !tbaa !372
  %.not.i = icmp eq ptr %15, null
  br i1 %.not.i, label %_ZNK4Luau7AstNameneEPKc.exit.thread, label %_ZNK4Luau7AstNameneEPKc.exit

_ZNK4Luau7AstNameneEPKc.exit:                     ; preds = %13
  %16 = tail call i32 @strcmp(ptr noundef nonnull dereferenceable(1) %15, ptr noundef nonnull dereferenceable(8) @.str.86) #35
  %.not10 = icmp eq i32 %16, 0
  br i1 %.not10, label %17, label %_ZNK4Luau7AstNameneEPKc.exit.thread

17:                                               ; preds = %_ZNK4Luau7AstNameneEPKc.exit
  %18 = load ptr, ptr %3, align 8, !tbaa !373
  %19 = load ptr, ptr %18, align 8, !tbaa !112
  br label %_ZNK4Luau7AstNameneEPKc.exit.thread

_ZNK4Luau7AstNameneEPKc.exit.thread:              ; preds = %13, %6, %_ZNK4Luau7AstNameneEPKc.exit, %2, %17
  %.sroa.2.0 = phi i8 [ 1, %17 ], [ 0, %2 ], [ 0, %_ZNK4Luau7AstNameneEPKc.exit ], [ 0, %6 ], [ 0, %13 ]
  %.sroa.0.0 = phi ptr [ %19, %17 ], [ undef, %2 ], [ undef, %_ZNK4Luau7AstNameneEPKc.exit ], [ undef, %6 ], [ undef, %13 ]
  %.fca.0.insert = insertvalue { ptr, i8 } poison, ptr %.sroa.0.0, 0
  %.fca.1.insert = insertvalue { ptr, i8 } %.fca.0.insert, i8 %.sroa.2.0, 1
  ret { ptr, i8 } %.fca.1.insert
}